; Function Attrs: mustprogress nofree norecurse nosync nounwind willreturn memory(readwrite, inaccessiblemem: none) uwtable
define internal void @"_ZNSt3__110__function6__funcIZN3tev11ImageViewerC1ERKNS_10shared_ptrINS2_22BackgroundImagesLoaderEEEbbbE4$_22NS_9allocatorIS9_EEFvbEEclEOb"(ptr nocapture noundef nonnull readonly align 8 dereferenceable(16) %0, ptr nocapture noundef nonnull readonly align 1 dereferenceable(1) %1) unnamed_addr #29 align 2 {
  %3 = getelementptr inbounds i8, ptr %0, i64 8
  %.val = load ptr, ptr %3, align 8
  %.val2 = load i8, ptr %1, align 1
  %4 = and i8 %.val2, 1
  %5 = getelementptr inbounds i8, ptr %.val, i64 752
  %6 = load ptr, ptr %5, align 16
  %7 = getelementptr inbounds i8, ptr %6, i64 168
  store i8 %4, ptr %7, align 8
  %8 = getelementptr inbounds i8, ptr %.val, i64 520
  store i8 1, ptr %8, align 8
  ret void
}